target datalayout = "e-m:e-p270:32:32-p271:32:32-p272:64:64-i64:64-i128:128-f80:128-n8:16:32:64-S128"
target triple = "x86_64-pc-linux-gnu"

%struct.ui_st = type { ptr, ptr, ptr, %struct.crypto_ex_data_st, i32, ptr }
%struct.crypto_ex_data_st = type { ptr, ptr }

@.str = private unnamed_addr constant [30 x i8] c"../openssl/crypto/ui/ui_lib.c\00", align 1
@__func__.UI_ctrl = private unnamed_addr constant [8 x i8] c"UI_ctrl\00", align 1

; Function Attrs: nounwind uwtable
define i32 @UI_ctrl(ptr noundef %0, i32 noundef %1, i64 noundef %2, ptr noundef %3, ptr noundef %4) #0 {
  %6 = alloca i32, align 4
  %7 = alloca ptr, align 8
  %8 = alloca i32, align 4
  %9 = alloca i64, align 8
  %10 = alloca ptr, align 8
  %11 = alloca ptr, align 8
  %12 = alloca i32, align 4
  store ptr %0, ptr %7, align 8, !tbaa !8
  store i32 %1, ptr %8, align 4, !tbaa !35
  store i64 %2, ptr %9, align 8, !tbaa !49
  store ptr %3, ptr %10, align 8, !tbaa !25
  store ptr %4, ptr %11, align 8, !tbaa !25
  %13 = load ptr, ptr %7, align 8, !tbaa !8
  %14 = icmp eq ptr %13, null
  br i1 %14, label %15, label %16

15:                                               ; preds = %5
  call void @ERR_new()
  call void @ERR_set_debug(ptr noundef @.str, i32 noundef 535, ptr noundef @__func__.UI_ctrl)
  call void (i32, i32, ptr, ...) @ERR_set_error(i32 noundef 40, i32 noundef 786690, ptr noundef null)
  store i32 -1, ptr %6, align 4
  br label %52

16:                                               ; preds = %5
  %17 = load i32, ptr %8, align 4, !tbaa !35
  switch i32 %17, label %50 [
    i32 1, label %18
    i32 2, label %41
  ]

18:                                               ; preds = %16
  call void @llvm.lifetime.start.p0(i64 4, ptr %12) #7
  %19 = load ptr, ptr %7, align 8, !tbaa !8
  %20 = getelementptr inbounds nuw %struct.ui_st, ptr %19, i32 0, i32 4
  %21 = load i32, ptr %20, align 8, !tbaa !18
  %22 = and i32 %21, 256
  %23 = icmp ne i32 %22, 0
  %24 = xor i1 %23, true
  %25 = xor i1 %24, true
  %26 = zext i1 %25 to i32
  store i32 %26, ptr %12, align 4, !tbaa !35
  %27 = load i64, ptr %9, align 8, !tbaa !49
  %28 = icmp ne i64 %27, 0
  br i1 %28, label %29, label %34

29:                                               ; preds = %18
  %30 = load ptr, ptr %7, align 8, !tbaa !8
  %31 = getelementptr inbounds nuw %struct.ui_st, ptr %30, i32 0, i32 4
  %32 = load i32, ptr %31, align 8, !tbaa !18
  %33 = or i32 %32, 256
  store i32 %33, ptr %31, align 8, !tbaa !18
  br label %39

34:                                               ; preds = %18
  %35 = load ptr, ptr %7, align 8, !tbaa !8
  %36 = getelementptr inbounds nuw %struct.ui_st, ptr %35, i32 0, i32 4
  %37 = load i32, ptr %36, align 8, !tbaa !18
  %38 = and i32 %37, -257
  store i32 %38, ptr %36, align 8, !tbaa !18
  br label %39

39:                                               ; preds = %34, %29
  %40 = load i32, ptr %12, align 4, !tbaa !35
  store i32 %40, ptr %6, align 4
  call void @llvm.lifetime.end.p0(i64 4, ptr %12) #7
  br label %52

41:                                               ; preds = %16
  %42 = load ptr, ptr %7, align 8, !tbaa !8
  %43 = getelementptr inbounds nuw %struct.ui_st, ptr %42, i32 0, i32 4
  %44 = load i32, ptr %43, align 8, !tbaa !18
  %45 = and i32 %44, 1
  %46 = icmp ne i32 %45, 0
  %47 = xor i1 %46, true
  %48 = xor i1 %47, true
  %49 = zext i1 %48 to i32
  store i32 %49, ptr %6, align 4
  br label %52

50:                                               ; preds = %16
  br label %51

51:                                               ; preds = %50
  call void @ERR_new()
  call void @ERR_set_debug(ptr noundef @.str, i32 noundef 553, ptr noundef @__func__.UI_ctrl)
  call void (i32, i32, ptr, ...) @ERR_set_error(i32 noundef 40, i32 noundef 106, ptr noundef null)
  store i32 -1, ptr %6, align 4
  br label %52

52:                                               ; preds = %51, %41, %39, %15
  %53 = load i32, ptr %6, align 4
  ret i32 %53
}