; Function Attrs: nounwind uwtable
define range(i32 -1, 2) i32 @UI_ctrl(ptr noundef captures(address_is_null) %0, i32 noundef %1, i64 noundef %2, ptr noundef readnone captures(none) %3, ptr noundef readnone captures(none) %4) local_unnamed_addr #0 {
  %6 = icmp eq ptr %0, null
  br i1 %6, label %7, label %8

7:                                                ; preds = %5
  tail call void @ERR_new() #8
  tail call void @ERR_set_debug(ptr noundef nonnull @.str, i32 noundef 535, ptr noundef nonnull @__func__.UI_ctrl) #8
  tail call void (i32, i32, ptr, ...) @ERR_set_error(i32 noundef 40, i32 noundef 786690, ptr noundef null) #8
  br label %19

8:                                                ; preds = %5
  switch i32 %1, label %18 [
    i32 1, label %9
    i32 2, label %14
  ]

9:                                                ; preds = %8
  %10 = getelementptr inbounds nuw i8, ptr %0, i64 40
  %11 = load i32, ptr %10, align 8, !tbaa !15
  %12 = lshr i32 %11, 8
  %.lobit = and i32 %12, 1
  %.not = icmp eq i64 %2, 0
  %13 = and i32 %11, -257
  %masksel = select i1 %.not, i32 0, i32 256
  %storemerge = or disjoint i32 %13, %masksel
  store i32 %storemerge, ptr %10, align 8, !tbaa !15
  br label %19

14:                                               ; preds = %8
  %15 = getelementptr inbounds nuw i8, ptr %0, i64 40
  %16 = load i32, ptr %15, align 8, !tbaa !15
  %17 = and i32 %16, 1
  br label %19

18:                                               ; preds = %8
  tail call void @ERR_new() #8
  tail call void @ERR_set_debug(ptr noundef nonnull @.str, i32 noundef 553, ptr noundef nonnull @__func__.UI_ctrl) #8
  tail call void (i32, i32, ptr, ...) @ERR_set_error(i32 noundef 40, i32 noundef 106, ptr noundef null) #8
  br label %19

19:                                               ; preds = %18, %14, %9, %7
  %.0 = phi i32 [ -1, %7 ], [ -1, %18 ], [ %17, %14 ], [ %.lobit, %9 ]
  ret i32 %.0
}